target datalayout = "e-m:e-p270:32:32-p271:32:32-p272:64:64-i64:64-i128:128-f80:128-n8:16:32:64-S128"
target triple = "x86_64-unknown-linux-gnu"

%"class.std::basic_string_view" = type { i64, ptr }
%"class.grpc_core::RefCountedPtr.0" = type { ptr }
%class.grpc_local_credentials = type <{ %struct.grpc_channel_credentials, i32, [4 x i8] }>
%struct.grpc_channel_credentials = type { %"class.grpc_core::RefCounted" }
%"class.grpc_core::RefCounted" = type { %"class.grpc_core::PolymorphicRefCount", %"class.grpc_core::RefCount" }
%"class.grpc_core::PolymorphicRefCount" = type { ptr }
%"class.grpc_core::RefCount" = type { %"struct.std::atomic" }
%"struct.std::atomic" = type { %"struct.std::__atomic_base" }
%"struct.std::__atomic_base" = type { i64 }
%"class.grpc_core::RefCountedPtr.1" = type { ptr }
%class.grpc_channel_security_connector = type { %class.grpc_security_connector, %"class.grpc_core::RefCountedPtr.0", %"class.grpc_core::RefCountedPtr.1", %"class.std::unique_ptr" }
%class.grpc_security_connector = type { %"class.grpc_core::RefCounted.7", %"class.std::basic_string_view" }
%"class.grpc_core::RefCounted.7" = type { %"class.grpc_core::PolymorphicRefCount", %"class.grpc_core::RefCount" }
%"class.std::unique_ptr" = type { %"struct.std::__uniq_ptr_data" }
%"struct.std::__uniq_ptr_data" = type { %"class.std::__uniq_ptr_impl" }
%"class.std::__uniq_ptr_impl" = type { %"class.std::tuple" }
%"class.std::tuple" = type { %"struct.std::_Tuple_impl" }
%"struct.std::_Tuple_impl" = type { %"struct.std::_Head_base.9" }
%"struct.std::_Head_base.9" = type { ptr }
%struct.tsi_peer = type { ptr, i64 }

; Function Attrs: mustprogress nounwind uwtable
define linkonce_odr noundef ptr @_ZNK9grpc_core13RefCountedPtrI24grpc_channel_credentialsE3getEv(ptr noundef nonnull align 8 dereferenceable(8) %this) #5 comdat align 2 {
entry:
  %this.addr = alloca ptr, align 8
  store ptr %this, ptr %this.addr, align 8
  %this1 = load ptr, ptr %this.addr, align 8
  %value_ = getelementptr inbounds %"class.grpc_core::RefCountedPtr.0", ptr %this1, i32 0, i32 0
  %0 = load ptr, ptr %value_, align 8
  ret ptr %0
}

; Function Attrs: mustprogress nounwind uwtable
define linkonce_odr noundef i32 @_ZNK22grpc_local_credentials12connect_typeEv(ptr noundef nonnull align 8 dereferenceable(24) %this) #5 comdat align 2 {
entry:
  %this.addr = alloca ptr, align 8
  store ptr %this, ptr %this.addr, align 8
  %this1 = load ptr, ptr %this.addr, align 8
  %connect_type_ = getelementptr inbounds %class.grpc_local_credentials, ptr %this1, i32 0, i32 1
  %0 = load i32, ptr %connect_type_, align 8
  ret i32 %0
}

; Function Attrs: mustprogress nounwind uwtable
define linkonce_odr noundef ptr @_ZN31grpc_channel_security_connector21mutable_channel_credsEv(ptr noundef nonnull align 8 dereferenceable(56) %this) #5 comdat align 2 {
entry:
  %this.addr = alloca ptr, align 8
  store ptr %this, ptr %this.addr, align 8
  %this1 = load ptr, ptr %this.addr, align 8
  %channel_creds_ = getelementptr inbounds %class.grpc_channel_security_connector, ptr %this1, i32 0, i32 1
  %call = call noundef ptr @_ZNK9grpc_core13RefCountedPtrI24grpc_channel_credentialsE3getEv(ptr noundef nonnull align 8 dereferenceable(8) %channel_creds_)
  ret ptr %call
}

; Function Attrs: mustprogress uwtable
define internal void @_ZN12_GLOBAL__N_137grpc_local_channel_security_connector10check_peerE8tsi_peerP13grpc_endpointRKN9grpc_core11ChannelArgsEPNS4_13RefCountedPtrI17grpc_auth_contextEEP12grpc_closure(ptr noundef nonnull align 8 dereferenceable(64) %this, ptr %peer.coerce0, i64 %peer.coerce1, ptr noundef %ep, ptr noundef nonnull align 8 dereferenceable(8) %0, ptr noundef %auth_context, ptr noundef %on_peer_checked) unnamed_addr #4 align 2 {
entry:
  %peer = alloca %struct.tsi_peer, align 8
  %this.addr = alloca ptr, align 8
  %ep.addr = alloca ptr, align 8
  %.addr = alloca ptr, align 8
  %auth_context.addr = alloca ptr, align 8
  %on_peer_checked.addr = alloca ptr, align 8
  %creds = alloca ptr, align 8
  %agg.tmp = alloca %struct.tsi_peer, align 8
  %1 = getelementptr inbounds { ptr, i64 }, ptr %peer, i32 0, i32 0
  store ptr %peer.coerce0, ptr %1, align 8
  %2 = getelementptr inbounds { ptr, i64 }, ptr %peer, i32 0, i32 1
  store i64 %peer.coerce1, ptr %2, align 8
  store ptr %this, ptr %this.addr, align 8
  store ptr %ep, ptr %ep.addr, align 8
  store ptr %0, ptr %.addr, align 8
  store ptr %auth_context, ptr %auth_context.addr, align 8
  store ptr %on_peer_checked, ptr %on_peer_checked.addr, align 8
  %this1 = load ptr, ptr %this.addr, align 8
  %call = call noundef ptr @_ZN31grpc_channel_security_connector21mutable_channel_credsEv(ptr noundef nonnull align 8 dereferenceable(56) %this1)
  store ptr %call, ptr %creds, align 8
  call void @llvm.memcpy.p0.p0.i64(ptr align 8 %agg.tmp, ptr align 8 %peer, i64 16, i1 false)
  %3 = load ptr, ptr %ep.addr, align 8
  %4 = load ptr, ptr %auth_context.addr, align 8
  %5 = load ptr, ptr %on_peer_checked.addr, align 8
  %6 = load ptr, ptr %creds, align 8
  %call2 = call noundef i32 @_ZNK22grpc_local_credentials12connect_typeEv(ptr noundef nonnull align 8 dereferenceable(24) %6)
  %7 = getelementptr inbounds { ptr, i64 }, ptr %agg.tmp, i32 0, i32 0
  %8 = load ptr, ptr %7, align 8
  %9 = getelementptr inbounds { ptr, i64 }, ptr %agg.tmp, i32 0, i32 1
  %10 = load i64, ptr %9, align 8
  call void @_ZN12_GLOBAL__N_116local_check_peerE8tsi_peerP13grpc_endpointPN9grpc_core13RefCountedPtrI17grpc_auth_contextEEP12grpc_closure23grpc_local_connect_type(ptr %8, i64 %10, ptr noundef %3, ptr noundef %4, ptr noundef %5, i32 noundef %call2)
  ret void
}